Certificate:
    Data:
        Version: 3 (0x2)
        Serial Number: 4099 (0x1003)
        Signature Algorithm: sha256WithRSAEncryption
        Issuer: C=US, ST=NY, L=SYR, O=SYR, OU=SYR, CN=seedlabca.com
        Validity
            Not Before: Aug 26 11:26:21 2022 GMT
            Not After : Aug 23 11:26:21 2032 GMT
        Subject: C=CN, O=Sun2022 Inc., CN=www.sun2022.com
        Subject Public Key Info:
            Public Key Algorithm: rsaEncryption
                RSA Public-Key: (2048 bit)
                Modulus:
                    00:c1:f1:0e:55:49:ad:90:0f:0b:5c:0c:42:ad:2e:
                    11:b9:61:97:c7:41:27:68:de:73:df:fe:5b:48:28:
                    e2:8a:4f:2e:1b:90:85:27:b7:c4:29:8d:38:3a:9f:
                    a6:e6:08:5a:d6:2f:4d:23:51:e9:df:5f:dd:aa:96:
                    d8:2d:fc:e7:44:c1:c2:ef:94:fd:c5:5a:e7:5d:6e:
                    9b:dc:ed:3c:2d:39:df:bc:ed:57:8b:5c:13:e1:bc:
                    00:fb:25:70:65:e9:a9:5f:cf:94:ba:d0:6b:72:d9:
                    12:4c:0e:ed:a6:4a:1f:da:c5:12:da:31:c8:cd:06:
                    c5:65:40:65:03:b8:1e:af:74:37:3d:ce:83:80:41:
                    4e:7e:a0:39:53:bb:f2:55:15:d7:bf:08:fa:06:a4:
                    05:48:f5:4f:18:8b:24:12:d3:8a:c8:2c:93:b9:3f:
                    89:ac:05:0b:fd:2e:f4:52:b4:46:00:d2:ed:c1:b0:
                    12:7e:dc:dd:be:13:5c:68:46:a0:c8:c3:e4:9b:bc:
                    cb:81:3b:7f:0e:6a:d4:07:5d:4a:e8:8b:a1:85:54:
                    48:a7:f9:6f:6e:54:79:b8:83:68:5c:03:08:0d:b7:
                    9c:31:a1:fd:a1:98:ee:4e:95:86:1c:38:a0:ed:97:
                    89:c3:48:94:26:be:d1:df:79:16:cb:87:53:6f:b1:
                    07:59
                Exponent: 65537 (0x10001)
        X509v3 extensions:
            X509v3 Basic Constraints: 
                CA:FALSE
            Netscape Comment: 
                OpenSSL Generated Certificate
            X509v3 Subject Key Identifier: 
                0E:3B:26:DF:52:30:09:3F:27:A7:B2:49:AF:5A:5D:BD:2B:47:7C:A9
            X509v3 Authority Key Identifier: 
                keyid:14:F3:1C:70:F5:2D:F0:DE:EF:12:B9:96:C3:38:1A:95:E3:07:55:78

    Signature Algorithm: sha256WithRSAEncryption
         a9:41:d7:8f:45:e4:fd:b5:13:86:5d:d0:69:a4:49:49:36:a7:
         82:d7:94:0a:82:e7:9a:b7:b1:e7:d2:47:c5:72:06:df:a5:76:
         cb:0b:5e:b7:2f:16:90:77:6c:f9:63:4d:01:f2:4f:98:d7:ca:
         44:40:17:b6:67:00:18:4c:f3:5f:95:32:de:74:c2:37:dd:81:
         05:19:6b:5b:15:39:e2:59:17:e9:f7:b0:c6:03:91:f8:95:7b:
         5a:b9:3b:9e:29:81:55:60:c7:54:32:d1:20:e7:a6:29:3e:e8:
         ba:5e:73:0a:6f:a3:4c:cb:60:59:1a:f3:be:51:4a:3c:a0:bf:
         e5:ac:21:40:4f:ea:5b:73:32:0f:f3:22:5b:b5:94:c4:76:1e:
         c5:cd:da:43:0d:0c:aa:2a:81:c6:76:6d:64:0a:05:82:4d:d7:
         06:e8:7e:d0:13:8a:eb:bc:83:f9:9b:4a:8d:a8:a1:69:7b:71:
         e8:01:6c:7c:26:85:59:c0:e9:c0:16:c7:07:94:c1:c5:99:1d:
         f6:12:fe:ee:ae:5e:06:c9:ee:f9:7a:41:f2:4f:f5:62:7b:50:
         59:2b:7a:28:62:b4:c2:e6:30:97:d2:c2:34:73:04:ae:87:b5:
         48:ae:14:99:42:db:86:5b:7c:e6:a7:73:96:ab:67:a0:91:de:
         1a:a0:34:8e
-----BEGIN CERTIFICATE-----
MIIDkTCCAnmgAwIBAgICEAMwDQYJKoZIhvcNAQELBQAwXDELMAkGA1UEBhMCVVMx
CzAJBgNVBAgMAk5ZMQwwCgYDVQQHDANTWVIxDDAKBgNVBAoMA1NZUjEMMAoGA1UE
CwwDU1lSMRYwFAYDVQQDDA1zZWVkbGFiY2EuY29tMB4XDTIyMDgyNjExMjYyMVoX
DTMyMDgyMzExMjYyMVowPjELMAkGA1UEBhMCQ04xFTATBgNVBAoMDFN1bjIwMjIg
SW5jLjEYMBYGA1UEAwwPd3d3LnN1bjIwMjIuY29tMIIBIjANBgkqhkiG9w0BAQEF
AAOCAQ8AMIIBCgKCAQEAwfEOVUmtkA8LXAxCrS4RuWGXx0EnaN5z3/5bSCjiik8u
G5CFJ7fEKY04Op+m5gha1i9NI1Hp31/dqpbYLfznRMHC75T9xVrnXW6b3O08LTnf
vO1Xi1wT4bwA+yVwZempX8+UutBrctkSTA7tpkof2sUS2jHIzQbFZUBlA7ger3Q3
Pc6DgEFOfqA5U7vyVRXXvwj6BqQFSPVPGIskEtOKyCyTuT+JrAUL/S70UrRGANLt
wbASftzdvhNcaEagyMPkm7zLgTt/DmrUB11K6IuhhVRIp/lvblR5uINoXAMIDbec
MaH9oZjuTpWGHDig7ZeJw0iUJr7R33kWy4dTb7EHWQIDAQABo3sweTAJBgNVHRME
AjAAMCwGCWCGSAGG+EIBDQQfFh1PcGVuU1NMIEdlbmVyYXRlZCBDZXJ0aWZpY2F0
ZTAdBgNVHQ4EFgQUDjsm31IwCT8np7JJr1pdvStHfKkwHwYDVR0jBBgwFoAUFPMc
cPUt8N7vErmWwzgaleMHVXgwDQYJKoZIhvcNAQELBQADggEBAKlB149F5P21E4Zd
0GmkSUk2p4LXlAqC55q3sefSR8VyBt+ldssLXrcvFpB3bPljTQHyT5jXykRAF7Zn
ABhM81+VMt50wjfdgQUZa1sVOeJZF+n3sMYDkfiVe1q5O54pgVVgx1Qy0SDnpik+
6Lpecwpvo0zLYFka875RSjygv+WsIUBP6ltzMg/zIlu1lMR2HsXN2kMNDKoqgcZ2
bWQKBYJN1wboftATiuu8g/mbSo2ooWl7cegBbHwmhVnA6cAWxweUwcWZHfYS/u6u
XgbJ7vl6QfJP9WJ7UFkreihitMLmMJfSwjRzBK6HtUiuFJlC24ZbfOanc5arZ6CR
3hqgNI4=
-----END CERTIFICATE-----
