Certificate:
    Data:
        Version: 3 (0x2)
        Serial Number: 4098 (0x1002)
        Signature Algorithm: sha256WithRSAEncryption
        Issuer: C=US, ST=NY, L=SYR, O=SYR, OU=SYR, CN=seedlabca.com
        Validity
            Not Before: Aug 26 10:02:56 2022 GMT
            Not After : Aug 23 10:02:56 2032 GMT
        Subject: C=US, ST=NY, L=SYR, O=SYR, OU=SYR, CN=vpnlabserver.com
        Subject Public Key Info:
            Public Key Algorithm: rsaEncryption
                RSA Public-Key: (2048 bit)
                Modulus:
                    00:ec:4d:f6:43:a9:37:86:a4:ac:cd:9b:2f:9a:85:
                    ae:a4:8e:be:70:32:c5:8c:ae:66:bb:85:52:4a:90:
                    ed:b9:02:17:77:d9:c4:11:0c:e5:66:96:50:3d:d7:
                    93:85:c4:fc:2e:ef:56:63:5a:c0:7d:c7:be:19:99:
                    12:35:8d:fb:0b:67:9f:b7:e2:77:27:57:8d:88:e2:
                    4a:51:e1:fa:e5:33:10:75:47:f0:ab:9e:bd:f0:66:
                    31:4b:f8:a9:7b:32:94:15:e2:5e:70:07:ef:90:05:
                    7b:be:6a:82:99:7b:3f:41:be:aa:25:c8:52:b6:4d:
                    38:42:29:55:c5:13:0a:dc:4f:40:e3:2e:c1:0e:7e:
                    2a:69:a5:0e:e6:cc:39:9e:7f:31:36:6a:fb:fd:e1:
                    3a:05:03:07:6d:4c:ac:d5:38:2c:a5:c1:b6:b1:e0:
                    21:25:a9:94:71:c3:62:a1:e8:1e:44:6f:c4:8c:27:
                    a1:fb:13:7e:4a:1c:5f:98:15:fe:f0:61:3d:8a:e4:
                    03:27:df:a3:d9:b3:5f:8b:5c:b7:fa:21:12:c8:b3:
                    7f:98:fb:9a:4c:8a:b2:8b:09:60:71:1e:27:1a:ca:
                    66:e6:de:ed:70:bf:d3:8d:2a:15:1f:78:48:8d:f4:
                    eb:cd:5d:05:b1:7a:8d:e1:ce:ef:3d:9e:1d:9f:4b:
                    ac:63
                Exponent: 65537 (0x10001)
        X509v3 extensions:
            X509v3 Basic Constraints: 
                CA:FALSE
            Netscape Comment: 
                OpenSSL Generated Certificate
            X509v3 Subject Key Identifier: 
                C2:8B:1F:E3:D4:71:9F:F1:FC:3D:24:7D:50:3D:C5:80:B0:18:97:63
            X509v3 Authority Key Identifier: 
                keyid:14:F3:1C:70:F5:2D:F0:DE:EF:12:B9:96:C3:38:1A:95:E3:07:55:78

    Signature Algorithm: sha256WithRSAEncryption
         4a:9c:70:cf:47:b8:04:96:19:bc:ad:50:00:04:6c:a5:b0:cf:
         e8:87:fd:9a:8b:1a:33:1f:ef:d1:c4:08:25:c2:db:a9:ec:67:
         ee:65:2f:b0:af:df:79:b1:bf:6b:c7:45:0f:94:af:51:7c:df:
         9e:c9:5e:fa:18:b9:64:f9:8e:80:b4:e5:d4:e5:54:13:0b:f6:
         5c:35:56:57:27:00:cb:85:58:6c:c4:79:8f:19:b1:15:0b:66:
         b8:ba:20:d8:30:2b:7b:59:86:f2:56:52:79:5a:a4:63:14:d4:
         2d:6f:3e:b2:b1:eb:d1:3c:05:4e:c6:c6:c7:d9:6c:c6:c9:bf:
         71:c9:68:21:ba:c9:f5:c3:64:c0:2f:0e:07:98:30:d3:dc:eb:
         b4:e3:09:68:1c:78:13:9e:6e:97:85:36:5a:4c:41:ba:91:b9:
         98:a6:35:d4:34:5e:35:3a:28:4f:2b:34:dc:26:d9:43:7f:86:
         b4:84:28:7e:9d:e6:9e:84:4d:27:e4:66:9e:b8:f0:dd:af:dc:
         e5:c7:1d:47:3f:13:44:bc:cf:47:03:43:d1:e3:d3:d8:ef:9d:
         4d:38:22:b4:c9:62:3e:c7:b4:f7:a1:ca:8b:63:cb:e0:e5:23:
         ca:2a:02:a6:5e:b2:88:f7:df:75:f9:d8:b7:47:6e:4b:6b:df:
         65:e4:c0:bd
-----BEGIN CERTIFICATE-----
MIIDsjCCApqgAwIBAgICEAIwDQYJKoZIhvcNAQELBQAwXDELMAkGA1UEBhMCVVMx
CzAJBgNVBAgMAk5ZMQwwCgYDVQQHDANTWVIxDDAKBgNVBAoMA1NZUjEMMAoGA1UE
CwwDU1lSMRYwFAYDVQQDDA1zZWVkbGFiY2EuY29tMB4XDTIyMDgyNjEwMDI1NloX
DTMyMDgyMzEwMDI1NlowXzELMAkGA1UEBhMCVVMxCzAJBgNVBAgMAk5ZMQwwCgYD
VQQHDANTWVIxDDAKBgNVBAoMA1NZUjEMMAoGA1UECwwDU1lSMRkwFwYDVQQDDBB2
cG5sYWJzZXJ2ZXIuY29tMIIBIjANBgkqhkiG9w0BAQEFAAOCAQ8AMIIBCgKCAQEA
7E32Q6k3hqSszZsvmoWupI6+cDLFjK5mu4VSSpDtuQIXd9nEEQzlZpZQPdeThcT8
Lu9WY1rAfce+GZkSNY37C2eft+J3J1eNiOJKUeH65TMQdUfwq5698GYxS/ipezKU
FeJecAfvkAV7vmqCmXs/Qb6qJchStk04QilVxRMK3E9A4y7BDn4qaaUO5sw5nn8x
Nmr7/eE6BQMHbUys1TgspcG2seAhJamUccNioegeRG/EjCeh+xN+ShxfmBX+8GE9
iuQDJ9+j2bNfi1y3+iESyLN/mPuaTIqyiwlgcR4nGspm5t7tcL/TjSoVH3hIjfTr
zV0FsXqN4c7vPZ4dn0usYwIDAQABo3sweTAJBgNVHRMEAjAAMCwGCWCGSAGG+EIB
DQQfFh1PcGVuU1NMIEdlbmVyYXRlZCBDZXJ0aWZpY2F0ZTAdBgNVHQ4EFgQUwosf
49Rxn/H8PSR9UD3FgLAYl2MwHwYDVR0jBBgwFoAUFPMccPUt8N7vErmWwzgaleMH
VXgwDQYJKoZIhvcNAQELBQADggEBAEqccM9HuASWGbytUAAEbKWwz+iH/ZqLGjMf
79HECCXC26nsZ+5lL7Cv33mxv2vHRQ+Ur1F8357JXvoYuWT5joC05dTlVBML9lw1
VlcnAMuFWGzEeY8ZsRULZri6INgwK3tZhvJWUnlapGMU1C1vPrKx69E8BU7GxsfZ
bMbJv3HJaCG6yfXDZMAvDgeYMNPc67TjCWgceBOebpeFNlpMQbqRuZimNdQ0XjU6
KE8rNNwm2UN/hrSEKH6d5p6ETSfkZp648N2v3OXHHUc/E0S8z0cDQ9Hj09jvnU04
IrTJYj7HtPehyotjy+DlI8oqAqZesoj333X52LdHbktr32XkwL0=
-----END CERTIFICATE-----
