Certificate:
    Data:
        Version: 3 (0x2)
        Serial Number: 4100 (0x1004)
        Signature Algorithm: sha256WithRSAEncryption
        Issuer: C=US, ST=NY, L=SYR, O=SYR, OU=SYR, CN=seedlabca.com
        Validity
            Not Before: Aug 26 11:42:22 2022 GMT
            Not After : Aug 23 11:42:22 2032 GMT
        Subject: C=US, ST=NY, L=SYR, O=SYR, OU=SYR, CN=www.sun2022.com
        Subject Public Key Info:
            Public Key Algorithm: rsaEncryption
                RSA Public-Key: (2048 bit)
                Modulus:
                    00:b1:3a:09:0e:d0:49:43:eb:7b:bb:ea:74:ef:b1:
                    99:94:ec:12:80:4c:6b:eb:c7:ac:56:23:f8:e6:27:
                    91:ef:fd:b0:ee:e2:db:39:12:25:50:65:e6:6f:00:
                    24:99:73:94:61:fb:2e:bc:af:4e:fd:37:39:0d:cb:
                    12:f3:97:40:13:79:af:35:83:ce:cb:7c:62:83:5f:
                    b5:7f:02:aa:5e:ff:25:6c:9a:4f:4c:ec:6d:57:d8:
                    ed:d6:5e:ee:0d:3c:38:8a:ab:34:c6:22:a9:6d:e4:
                    c7:9b:fc:33:72:f9:b8:2f:70:18:97:c1:33:1a:c5:
                    af:7b:56:0a:bb:07:21:d8:53:3b:cb:4b:be:24:a9:
                    6c:e8:f1:fa:7e:35:dd:7a:96:28:18:08:19:e7:5b:
                    a5:a2:e8:c0:c2:29:e1:5f:50:86:3d:58:f0:58:8c:
                    ec:48:ed:0b:01:60:a9:e6:76:c9:c8:6b:bc:d4:b5:
                    c0:c7:07:ad:93:26:a7:c1:ca:10:ee:01:ad:e7:16:
                    49:54:fb:dc:1f:ff:25:83:6f:f3:9e:9d:36:a3:ac:
                    70:92:a7:fc:e0:83:7f:b5:db:d5:59:f9:3d:9a:ce:
                    13:71:a8:c4:48:54:d8:9d:83:f7:8b:6e:d2:bf:9b:
                    02:cf:9e:4a:87:c7:2c:a0:c0:07:44:5c:a1:a3:e5:
                    16:57
                Exponent: 65537 (0x10001)
        X509v3 extensions:
            X509v3 Basic Constraints: 
                CA:FALSE
            Netscape Comment: 
                OpenSSL Generated Certificate
            X509v3 Subject Key Identifier: 
                F2:A4:E7:DE:26:8E:A1:2D:0D:65:D1:8D:09:17:28:A4:CA:EF:DD:28
            X509v3 Authority Key Identifier: 
                keyid:14:F3:1C:70:F5:2D:F0:DE:EF:12:B9:96:C3:38:1A:95:E3:07:55:78

    Signature Algorithm: sha256WithRSAEncryption
         7c:ce:42:c9:ae:62:8b:9e:45:f4:05:77:29:3e:6c:ca:d2:0c:
         90:1e:e6:a0:a9:68:e7:af:88:42:e4:d4:7c:70:bb:64:93:39:
         c6:43:b3:0c:d1:9a:ff:05:a4:6c:ce:fd:ba:6c:d6:64:9d:81:
         44:95:e6:71:a2:56:f9:01:5e:d9:f8:82:b3:2f:af:e0:7d:dc:
         cc:28:a8:f6:92:29:29:d8:86:2f:db:a3:b1:e9:e1:90:01:bf:
         6d:b8:b7:3d:41:87:b8:92:69:cb:f1:c3:7d:6a:26:b9:10:2a:
         63:99:91:54:97:d4:22:1d:ae:aa:91:71:6b:d5:cb:b2:02:06:
         aa:8d:7d:2b:72:ab:6f:22:54:d2:39:3d:ff:e2:7f:47:9b:bf:
         5f:52:3c:d3:50:ee:f5:40:8d:51:80:e7:a8:95:d3:38:a9:a1:
         e2:54:d6:85:61:8b:4a:55:bc:d4:bd:d7:75:7d:ee:eb:a3:fb:
         ed:72:5d:c2:7f:c5:a1:5a:eb:41:68:a6:1f:53:0b:b7:18:43:
         ce:a2:48:dd:ea:c0:60:0f:9f:9e:f1:c7:6c:53:87:cd:f9:0a:
         b9:0c:7e:82:19:ef:d3:0a:c5:b2:e2:d7:85:ff:80:52:e8:7a:
         0e:67:1a:66:b8:27:40:7b:ed:72:96:c1:9e:d3:70:61:31:d1:
         b3:dd:b4:94
-----BEGIN CERTIFICATE-----
MIIDsTCCApmgAwIBAgICEAQwDQYJKoZIhvcNAQELBQAwXDELMAkGA1UEBhMCVVMx
CzAJBgNVBAgMAk5ZMQwwCgYDVQQHDANTWVIxDDAKBgNVBAoMA1NZUjEMMAoGA1UE
CwwDU1lSMRYwFAYDVQQDDA1zZWVkbGFiY2EuY29tMB4XDTIyMDgyNjExNDIyMloX
DTMyMDgyMzExNDIyMlowXjELMAkGA1UEBhMCVVMxCzAJBgNVBAgMAk5ZMQwwCgYD
VQQHDANTWVIxDDAKBgNVBAoMA1NZUjEMMAoGA1UECwwDU1lSMRgwFgYDVQQDDA93
d3cuc3VuMjAyMi5jb20wggEiMA0GCSqGSIb3DQEBAQUAA4IBDwAwggEKAoIBAQCx
OgkO0ElD63u76nTvsZmU7BKATGvrx6xWI/jmJ5Hv/bDu4ts5EiVQZeZvACSZc5Rh
+y68r079NzkNyxLzl0ATea81g87LfGKDX7V/Aqpe/yVsmk9M7G1X2O3WXu4NPDiK
qzTGIqlt5Meb/DNy+bgvcBiXwTMaxa97Vgq7ByHYUzvLS74kqWzo8fp+Nd16ligY
CBnnW6Wi6MDCKeFfUIY9WPBYjOxI7QsBYKnmdsnIa7zUtcDHB62TJqfByhDuAa3n
FklU+9wf/yWDb/OenTajrHCSp/zgg3+129VZ+T2azhNxqMRIVNidg/eLbtK/mwLP
nkqHxyygwAdEXKGj5RZXAgMBAAGjezB5MAkGA1UdEwQCMAAwLAYJYIZIAYb4QgEN
BB8WHU9wZW5TU0wgR2VuZXJhdGVkIENlcnRpZmljYXRlMB0GA1UdDgQWBBTypOfe
Jo6hLQ1l0Y0JFyikyu/dKDAfBgNVHSMEGDAWgBQU8xxw9S3w3u8SuZbDOBqV4wdV
eDANBgkqhkiG9w0BAQsFAAOCAQEAfM5Cya5ii55F9AV3KT5sytIMkB7moKlo56+I
QuTUfHC7ZJM5xkOzDNGa/wWkbM79umzWZJ2BRJXmcaJW+QFe2fiCsy+v4H3czCio
9pIpKdiGL9ujsenhkAG/bbi3PUGHuJJpy/HDfWomuRAqY5mRVJfUIh2uqpFxa9XL
sgIGqo19K3KrbyJU0jk9/+J/R5u/X1I801Du9UCNUYDnqJXTOKmh4lTWhWGLSlW8
1L3XdX3u66P77XJdwn/FoVrrQWimH1MLtxhDzqJI3erAYA+fnvHHbFOHzfkKuQx+
ghnv0wrFsuLXhf+AUuh6DmcaZrgnQHvtcpbBntNwYTHRs920lA==
-----END CERTIFICATE-----
